; Function Attrs: nounwind uwtable
define hidden void @_ZTv0_n24_N2cv7details10ChessboardD0Ev(ptr noundef %0) unnamed_addr #27 align 2 {
  %2 = load ptr, ptr %0, align 8, !tbaa !3
  %3 = getelementptr inbounds i8, ptr %2, i64 -24
  %4 = load i64, ptr %3, align 8
  %5 = getelementptr inbounds i8, ptr %0, i64 %4
  tail call void @_ZN2cv9Feature2DD2Ev(ptr noundef nonnull align 8 dereferenceable(36) %5, ptr noundef nonnull getelementptr inbounds nuw (i8, ptr @_ZTTN2cv7details10ChessboardE, i64 8)) #37
  tail call void @_ZN2cv9AlgorithmD2Ev(ptr noundef nonnull align 8 dereferenceable(36) %5) #37
  tail call void @_ZdlPv(ptr noundef nonnull align 8 dereferenceable(36) %5) #38
  ret void
}